; ModuleID = '2/1052.c'
source_filename = "2/1052.c"
target datalayout = "e-m:e-p270:32:32-p271:32:32-p272:64:64-i64:64-f80:128-n8:16:32:64-S128"
target triple = "x86_64-pc-linux-gnu"

%struct.author = type { i32, [999 x i32] }

@.str = private unnamed_addr constant [3 x i8] c"%d\00", align 1
@.str.1 = private unnamed_addr constant [5 x i8] c"%d%s\00", align 1
@a = common dso_local global [26 x %struct.author] zeroinitializer, align 16
@.str.2 = private unnamed_addr constant [7 x i8] c"%c\0A%d\0A\00", align 1
@.str.3 = private unnamed_addr constant [4 x i8] c"%d\0A\00", align 1

; Function Attrs: noinline nounwind uwtable
define dso_local i32 @main() #0 {
  %1 = alloca i32, align 4
  %2 = alloca i32, align 4
  %3 = alloca i32, align 4
  %4 = alloca i32, align 4
  %5 = alloca i32, align 4
  %6 = alloca i32, align 4
  %7 = alloca i32, align 4
  %8 = alloca i32, align 4
  %9 = alloca [26 x i8], align 16
  store i32 0, i32* %1, align 4
  store i32 0, i32* %5, align 4
  store i32 0, i32* %6, align 4
  store i32 0, i32* %7, align 4
  store i32 0, i32* %8, align 4
  %10 = call i32 (i8*, ...) @__isoc99_scanf(i8* getelementptr inbounds ([3 x i8], [3 x i8]* @.str, i64 0, i64 0), i32* %2)
  store i32 0, i32* %3, align 4
  br label %11

11:                                               ; preds = %68, %0
  %12 = load i32, i32* %3, align 4
  %13 = load i32, i32* %2, align 4
  %14 = icmp slt i32 %12, %13
  br i1 %14, label %15, label %71

15:                                               ; preds = %11
  %16 = getelementptr inbounds [26 x i8], [26 x i8]* %9, i64 0, i64 0
  %17 = call i32 (i8*, ...) @__isoc99_scanf(i8* getelementptr inbounds ([5 x i8], [5 x i8]* @.str.1, i64 0, i64 0), i32* %5, i8* %16)
  store i32 0, i32* %4, align 4
  br label %18

18:                                               ; preds = %64, %15
  %19 = load i32, i32* %4, align 4
  %20 = sext i32 %19 to i64
  %21 = getelementptr inbounds [26 x i8], [26 x i8]* %9, i64 0, i64 0
  %22 = call i64 @strlen(i8* %21) #3
  %23 = icmp ult i64 %20, %22
  br i1 %23, label %24, label %67

24:                                               ; preds = %18
  %25 = load i32, i32* %4, align 4
  %26 = sext i32 %25 to i64
  %27 = getelementptr inbounds [26 x i8], [26 x i8]* %9, i64 0, i64 %26
  %28 = load i8, i8* %27, align 1
  %29 = sext i8 %28 to i32
  %30 = sub nsw i32 %29, 65
  store i32 %30, i32* %6, align 4
  %31 = load i32, i32* %5, align 4
  %32 = load i32, i32* %6, align 4
  %33 = sext i32 %32 to i64
  %34 = getelementptr inbounds [26 x %struct.author], [26 x %struct.author]* @a, i64 0, i64 %33
  %35 = getelementptr inbounds %struct.author, %struct.author* %34, i32 0, i32 1
  %36 = load i32, i32* %6, align 4
  %37 = sext i32 %36 to i64
  %38 = getelementptr inbounds [26 x %struct.author], [26 x %struct.author]* @a, i64 0, i64 %37
  %39 = getelementptr inbounds %struct.author, %struct.author* %38, i32 0, i32 0
  %40 = load i32, i32* %39, align 16
  %41 = sext i32 %40 to i64
  %42 = getelementptr inbounds [999 x i32], [999 x i32]* %35, i64 0, i64 %41
  store i32 %31, i32* %42, align 4
  %43 = load i32, i32* %6, align 4
  %44 = sext i32 %43 to i64
  %45 = getelementptr inbounds [26 x %struct.author], [26 x %struct.author]* @a, i64 0, i64 %44
  %46 = getelementptr inbounds %struct.author, %struct.author* %45, i32 0, i32 0
  %47 = load i32, i32* %46, align 16
  %48 = add nsw i32 %47, 1
  store i32 %48, i32* %46, align 16
  %49 = load i32, i32* %7, align 4
  %50 = load i32, i32* %6, align 4
  %51 = sext i32 %50 to i64
  %52 = getelementptr inbounds [26 x %struct.author], [26 x %struct.author]* @a, i64 0, i64 %51
  %53 = getelementptr inbounds %struct.author, %struct.author* %52, i32 0, i32 0
  %54 = load i32, i32* %53, align 16
  %55 = icmp slt i32 %49, %54
  br i1 %55, label %56, label %63

56:                                               ; preds = %24
  %57 = load i32, i32* %6, align 4
  store i32 %57, i32* %8, align 4
  %58 = load i32, i32* %6, align 4
  %59 = sext i32 %58 to i64
  %60 = getelementptr inbounds [26 x %struct.author], [26 x %struct.author]* @a, i64 0, i64 %59
  %61 = getelementptr inbounds %struct.author, %struct.author* %60, i32 0, i32 0
  %62 = load i32, i32* %61, align 16
  store i32 %62, i32* %7, align 4
  br label %63

63:                                               ; preds = %56, %24
  br label %64

64:                                               ; preds = %63
  %65 = load i32, i32* %4, align 4
  %66 = add nsw i32 %65, 1
  store i32 %66, i32* %4, align 4
  br label %18

67:                                               ; preds = %18
  br label %68

68:                                               ; preds = %67
  %69 = load i32, i32* %3, align 4
  %70 = add nsw i32 %69, 1
  store i32 %70, i32* %3, align 4
  br label %11

71:                                               ; preds = %11
  %72 = load i32, i32* %8, align 4
  %73 = add nsw i32 %72, 65
  %74 = load i32, i32* %7, align 4
  %75 = call i32 (i8*, ...) @printf(i8* getelementptr inbounds ([7 x i8], [7 x i8]* @.str.2, i64 0, i64 0), i32 %73, i32 %74)
  store i32 0, i32* %3, align 4
  br label %76

76:                                               ; preds = %94, %71
  %77 = load i32, i32* %3, align 4
  %78 = load i32, i32* %8, align 4
  %79 = sext i32 %78 to i64
  %80 = getelementptr inbounds [26 x %struct.author], [26 x %struct.author]* @a, i64 0, i64 %79
  %81 = getelementptr inbounds %struct.author, %struct.author* %80, i32 0, i32 0
  %82 = load i32, i32* %81, align 16
  %83 = icmp slt i32 %77, %82
  br i1 %83, label %84, label %97

84:                                               ; preds = %76
  %85 = load i32, i32* %8, align 4
  %86 = sext i32 %85 to i64
  %87 = getelementptr inbounds [26 x %struct.author], [26 x %struct.author]* @a, i64 0, i64 %86
  %88 = getelementptr inbounds %struct.author, %struct.author* %87, i32 0, i32 1
  %89 = load i32, i32* %3, align 4
  %90 = sext i32 %89 to i64
  %91 = getelementptr inbounds [999 x i32], [999 x i32]* %88, i64 0, i64 %90
  %92 = load i32, i32* %91, align 4
  %93 = call i32 (i8*, ...) @printf(i8* getelementptr inbounds ([4 x i8], [4 x i8]* @.str.3, i64 0, i64 0), i32 %92)
  br label %94

94:                                               ; preds = %84
  %95 = load i32, i32* %3, align 4
  %96 = add nsw i32 %95, 1
  store i32 %96, i32* %3, align 4
  br label %76

97:                                               ; preds = %76
  %98 = load i32, i32* %1, align 4
  ret i32 %98
}

declare dso_local i32 @__isoc99_scanf(i8*, ...) #1

; Function Attrs: nounwind readonly
declare dso_local i64 @strlen(i8*) #2

declare dso_local i32 @printf(i8*, ...) #1


!llvm.module.flags = !{!0}
!llvm.ident = !{!1}

!0 = !{i32 1, !"wchar_size", i32 4}
!1 = !{!"clang version 10.0.0-4ubuntu1 "}
